; Function Attrs: mustprogress nofree norecurse nosync nounwind willreturn memory(read, inaccessiblemem: none) uwtable
define noundef i64 @_Z14gguf_type_size9gguf_type(i32 noundef %0) local_unnamed_addr #5 {
  %2 = load ptr, ptr getelementptr inbounds nuw (i8, ptr @_ZL14GGUF_TYPE_SIZE, i64 16), align 8, !tbaa !12
  %.not10.i.i.i = icmp eq ptr %2, null
  br i1 %.not10.i.i.i, label %_ZNKSt3mapI9gguf_typemSt4lessIS0_ESaISt4pairIKS0_mEEE4findERS4_.exit.thread, label %.lr.ph.i.i.i

.lr.ph.i.i.i:                                     ; preds = %1, %.lr.ph.i.i.i
  %.012.i.i.i = phi ptr [ %.1.i.i.i, %.lr.ph.i.i.i ], [ %2, %1 ]
  %.0811.i.i.i = phi ptr [ %.19.i.i.i, %.lr.ph.i.i.i ], [ getelementptr inbounds nuw (i8, ptr @_ZL14GGUF_TYPE_SIZE, i64 8), %1 ]
  %3 = getelementptr inbounds nuw i8, ptr %.012.i.i.i, i64 32
  %4 = load i32, ptr %3, align 4, !tbaa !17
  %5 = icmp slt i32 %4, %0
  %.19.i.i.i = select i1 %5, ptr %.0811.i.i.i, ptr %.012.i.i.i
  %.1.in.v.i.i.i = select i1 %5, i64 24, i64 16
  %.1.in.i.i.i = getelementptr inbounds nuw i8, ptr %.012.i.i.i, i64 %.1.in.v.i.i.i
  %.1.i.i.i = load ptr, ptr %.1.in.i.i.i, align 8, !tbaa !16
  %.not.i.i.i = icmp eq ptr %.1.i.i.i, null
  br i1 %.not.i.i.i, label %_ZNKSt8_Rb_treeI9gguf_typeSt4pairIKS0_mESt10_Select1stIS3_ESt4lessIS0_ESaIS3_EE14_M_lower_boundEPKSt13_Rb_tree_nodeIS3_EPKSt18_Rb_tree_node_baseRS2_.exit.i.i, label %.lr.ph.i.i.i, !llvm.loop !24

_ZNKSt8_Rb_treeI9gguf_typeSt4pairIKS0_mESt10_Select1stIS3_ESt4lessIS0_ESaIS3_EE14_M_lower_boundEPKSt13_Rb_tree_nodeIS3_EPKSt18_Rb_tree_node_baseRS2_.exit.i.i: ; preds = %.lr.ph.i.i.i
  %6 = icmp eq ptr %.19.i.i.i, getelementptr inbounds nuw (i8, ptr @_ZL14GGUF_TYPE_SIZE, i64 8)
  br i1 %6, label %_ZNKSt3mapI9gguf_typemSt4lessIS0_ESaISt4pairIKS0_mEEE4findERS4_.exit.thread, label %7

7:                                                ; preds = %_ZNKSt8_Rb_treeI9gguf_typeSt4pairIKS0_mESt10_Select1stIS3_ESt4lessIS0_ESaIS3_EE14_M_lower_boundEPKSt13_Rb_tree_nodeIS3_EPKSt18_Rb_tree_node_baseRS2_.exit.i.i
  %8 = getelementptr inbounds nuw i8, ptr %.19.i.i.i, i64 32
  %9 = load i32, ptr %8, align 4, !tbaa !17
  %10 = icmp slt i32 %0, %9
  br i1 %10, label %_ZNKSt3mapI9gguf_typemSt4lessIS0_ESaISt4pairIKS0_mEEE4findERS4_.exit.thread, label %_ZNKSt3mapI9gguf_typemSt4lessIS0_ESaISt4pairIKS0_mEEE4findERS4_.exit

_ZNKSt3mapI9gguf_typemSt4lessIS0_ESaISt4pairIKS0_mEEE4findERS4_.exit: ; preds = %7
  %11 = getelementptr inbounds nuw i8, ptr %.19.i.i.i, i64 40
  %12 = load i64, ptr %11, align 8, !tbaa !25
  br label %_ZNKSt3mapI9gguf_typemSt4lessIS0_ESaISt4pairIKS0_mEEE4findERS4_.exit.thread

_ZNKSt3mapI9gguf_typemSt4lessIS0_ESaISt4pairIKS0_mEEE4findERS4_.exit.thread: ; preds = %7, %1, %_ZNKSt8_Rb_treeI9gguf_typeSt4pairIKS0_mESt10_Select1stIS3_ESt4lessIS0_ESaIS3_EE14_M_lower_boundEPKSt13_Rb_tree_nodeIS3_EPKSt18_Rb_tree_node_baseRS2_.exit.i.i, %_ZNKSt3mapI9gguf_typemSt4lessIS0_ESaISt4pairIKS0_mEEE4findERS4_.exit
  %13 = phi i64 [ %12, %_ZNKSt3mapI9gguf_typemSt4lessIS0_ESaISt4pairIKS0_mEEE4findERS4_.exit ], [ 0, %_ZNKSt8_Rb_treeI9gguf_typeSt4pairIKS0_mESt10_Select1stIS3_ESt4lessIS0_ESaIS3_EE14_M_lower_boundEPKSt13_Rb_tree_nodeIS3_EPKSt18_Rb_tree_node_baseRS2_.exit.i.i ], [ 0, %1 ], [ 0, %7 ]
  ret i64 %13
}